target datalayout = "e-m:e-p270:32:32-p271:32:32-p272:64:64-i64:64-i128:128-f80:128-n8:16:32:64-S128"
target triple = "x86_64-pc-linux-gnu"

%struct.ossl_param_st = type { ptr, i32, ptr, i64, i64 }
%struct.ml_dsa_sig_ver_test_data_st = type { ptr, ptr, i64, ptr, i64, ptr, i64, i32 }

@lib_ctx = internal global ptr null, align 8
@.str.29 = private unnamed_addr constant [30 x i8] c"../openssl/test/ml_dsa_test.c\00", align 1
@.str.44 = private unnamed_addr constant [2 x i8] c"1\00", align 1
@.str.48 = private unnamed_addr constant [17 x i8] c"message-encoding\00", align 1
@.str.52 = private unnamed_addr constant [54 x i8] c"sig_alg = EVP_SIGNATURE_fetch(lib_ctx, td->alg, NULL)\00", align 1
@.str.69 = private unnamed_addr constant [72 x i8] c"ml_dsa_create_keypair(&pkey, td->alg, NULL, 0, td->pub, td->pub_len, 1)\00", align 1
@.str.70 = private unnamed_addr constant [55 x i8] c"vctx = EVP_PKEY_CTX_new_from_pkey(lib_ctx, pkey, NULL)\00", align 1
@.str.71 = private unnamed_addr constant [52 x i8] c"EVP_PKEY_verify_message_init(vctx, sig_alg, params)\00", align 1
@.str.72 = private unnamed_addr constant [66 x i8] c"EVP_PKEY_verify(vctx, td->sig, td->sig_len, td->msg, td->msg_len)\00", align 1
@.str.73 = private unnamed_addr constant [13 x i8] c"td->expected\00", align 1

; Function Attrs: nounwind uwtable
define internal i32 @ml_dsa_sigver_test(i32 noundef %0) #0 {
  %2 = alloca i32, align 4
  %3 = alloca i32, align 4
  %4 = alloca ptr, align 8
  %5 = alloca ptr, align 8
  %6 = alloca ptr, align 8
  %7 = alloca ptr, align 8
  %8 = alloca [2 x %struct.ossl_param_st], align 16
  %9 = alloca ptr, align 8
  %10 = alloca i32, align 4
  %11 = alloca %struct.ossl_param_st, align 8
  %12 = alloca %struct.ossl_param_st, align 8
  store i32 %0, ptr %2, align 4, !tbaa !9
  call void @llvm.lifetime.start.p0(i64 4, ptr %3) #4
  store i32 0, ptr %3, align 4, !tbaa !9
  call void @llvm.lifetime.start.p0(i64 8, ptr %4) #4
  %13 = load i32, ptr %2, align 4, !tbaa !9
  %14 = sext i32 %13 to i64
  %15 = getelementptr inbounds [1 x %struct.ml_dsa_sig_ver_test_data_st], ptr @ml_dsa_sigver_testdata, i64 0, i64 %14
  store ptr %15, ptr %4, align 8, !tbaa !49
  call void @llvm.lifetime.start.p0(i64 8, ptr %5) #4
  store ptr null, ptr %5, align 8, !tbaa !29
  call void @llvm.lifetime.start.p0(i64 8, ptr %6) #4
  store ptr null, ptr %6, align 8, !tbaa !15
  call void @llvm.lifetime.start.p0(i64 8, ptr %7) #4
  store ptr null, ptr %7, align 8, !tbaa !31
  call void @llvm.lifetime.start.p0(i64 80, ptr %8) #4
  call void @llvm.lifetime.start.p0(i64 8, ptr %9) #4
  %16 = getelementptr inbounds [2 x %struct.ossl_param_st], ptr %8, i64 0, i64 0
  store ptr %16, ptr %9, align 8, !tbaa !33
  call void @llvm.lifetime.start.p0(i64 4, ptr %10) #4
  store i32 0, ptr %10, align 4, !tbaa !9
  %17 = load ptr, ptr %9, align 8, !tbaa !33
  %18 = getelementptr inbounds nuw %struct.ossl_param_st, ptr %17, i32 1
  store ptr %18, ptr %9, align 8, !tbaa !33
  call void @llvm.lifetime.start.p0(i64 40, ptr %11) #4
  call void @OSSL_PARAM_construct_int(ptr dead_on_unwind writable sret(%struct.ossl_param_st) align 8 %11, ptr noundef @.str.48, ptr noundef %10)
  call void @llvm.memcpy.p0.p0.i64(ptr align 8 %17, ptr align 8 %11, i64 40, i1 false), !tbaa.struct !35
  call void @llvm.lifetime.end.p0(i64 40, ptr %11) #4
  %19 = load ptr, ptr %9, align 8, !tbaa !33
  call void @llvm.lifetime.start.p0(i64 40, ptr %12) #4
  call void @OSSL_PARAM_construct_end(ptr dead_on_unwind writable sret(%struct.ossl_param_st) align 8 %12)
  call void @llvm.memcpy.p0.p0.i64(ptr align 8 %19, ptr align 8 %12, i64 40, i1 false), !tbaa.struct !35
  call void @llvm.lifetime.end.p0(i64 40, ptr %12) #4
  %20 = load ptr, ptr %4, align 8, !tbaa !49
  %21 = getelementptr inbounds nuw %struct.ml_dsa_sig_ver_test_data_st, ptr %20, i32 0, i32 0
  %22 = load ptr, ptr %21, align 8, !tbaa !51
  %23 = load ptr, ptr %4, align 8, !tbaa !49
  %24 = getelementptr inbounds nuw %struct.ml_dsa_sig_ver_test_data_st, ptr %23, i32 0, i32 1
  %25 = load ptr, ptr %24, align 8, !tbaa !53
  %26 = load ptr, ptr %4, align 8, !tbaa !49
  %27 = getelementptr inbounds nuw %struct.ml_dsa_sig_ver_test_data_st, ptr %26, i32 0, i32 2
  %28 = load i64, ptr %27, align 8, !tbaa !54
  %29 = call i32 @ml_dsa_create_keypair(ptr noundef %6, ptr noundef %22, ptr noundef null, i64 noundef 0, ptr noundef %25, i64 noundef %28, i32 noundef 1)
  %30 = icmp ne i32 %29, 0
  %31 = zext i1 %30 to i32
  %32 = call i32 @test_true(ptr noundef @.str.29, i32 noundef 176, ptr noundef @.str.69, i32 noundef %31)
  %33 = icmp ne i32 %32, 0
  br i1 %33, label %35, label %34

34:                                               ; preds = %1
  br label %80

35:                                               ; preds = %1
  %36 = load ptr, ptr @lib_ctx, align 8, !tbaa !43
  %37 = load ptr, ptr %6, align 8, !tbaa !15
  %38 = call ptr @EVP_PKEY_CTX_new_from_pkey(ptr noundef %36, ptr noundef %37, ptr noundef null)
  store ptr %38, ptr %5, align 8, !tbaa !29
  %39 = call i32 @test_ptr(ptr noundef @.str.29, i32 noundef 179, ptr noundef @.str.70, ptr noundef %38)
  %40 = icmp ne i32 %39, 0
  br i1 %40, label %42, label %41

41:                                               ; preds = %35
  br label %80

42:                                               ; preds = %35
  %43 = load ptr, ptr @lib_ctx, align 8, !tbaa !43
  %44 = load ptr, ptr %4, align 8, !tbaa !49
  %45 = getelementptr inbounds nuw %struct.ml_dsa_sig_ver_test_data_st, ptr %44, i32 0, i32 0
  %46 = load ptr, ptr %45, align 8, !tbaa !51
  %47 = call ptr @EVP_SIGNATURE_fetch(ptr noundef %43, ptr noundef %46, ptr noundef null)
  store ptr %47, ptr %7, align 8, !tbaa !31
  %48 = call i32 @test_ptr(ptr noundef @.str.29, i32 noundef 181, ptr noundef @.str.52, ptr noundef %47)
  %49 = icmp ne i32 %48, 0
  br i1 %49, label %51, label %50

50:                                               ; preds = %42
  br label %80

51:                                               ; preds = %42
  %52 = load ptr, ptr %5, align 8, !tbaa !29
  %53 = load ptr, ptr %7, align 8, !tbaa !31
  %54 = getelementptr inbounds [2 x %struct.ossl_param_st], ptr %8, i64 0, i64 0
  %55 = call i32 @EVP_PKEY_verify_message_init(ptr noundef %52, ptr noundef %53, ptr noundef %54)
  %56 = call i32 @test_int_eq(ptr noundef @.str.29, i32 noundef 183, ptr noundef @.str.71, ptr noundef @.str.44, i32 noundef %55, i32 noundef 1)
  %57 = icmp ne i32 %56, 0
  br i1 %57, label %58, label %78

58:                                               ; preds = %51
  %59 = load ptr, ptr %5, align 8, !tbaa !29
  %60 = load ptr, ptr %4, align 8, !tbaa !49
  %61 = getelementptr inbounds nuw %struct.ml_dsa_sig_ver_test_data_st, ptr %60, i32 0, i32 5
  %62 = load ptr, ptr %61, align 8, !tbaa !55
  %63 = load ptr, ptr %4, align 8, !tbaa !49
  %64 = getelementptr inbounds nuw %struct.ml_dsa_sig_ver_test_data_st, ptr %63, i32 0, i32 6
  %65 = load i64, ptr %64, align 8, !tbaa !56
  %66 = load ptr, ptr %4, align 8, !tbaa !49
  %67 = getelementptr inbounds nuw %struct.ml_dsa_sig_ver_test_data_st, ptr %66, i32 0, i32 3
  %68 = load ptr, ptr %67, align 8, !tbaa !57
  %69 = load ptr, ptr %4, align 8, !tbaa !49
  %70 = getelementptr inbounds nuw %struct.ml_dsa_sig_ver_test_data_st, ptr %69, i32 0, i32 4
  %71 = load i64, ptr %70, align 8, !tbaa !58
  %72 = call i32 @EVP_PKEY_verify(ptr noundef %59, ptr noundef %62, i64 noundef %65, ptr noundef %68, i64 noundef %71)
  %73 = load ptr, ptr %4, align 8, !tbaa !49
  %74 = getelementptr inbounds nuw %struct.ml_dsa_sig_ver_test_data_st, ptr %73, i32 0, i32 7
  %75 = load i32, ptr %74, align 8, !tbaa !59
  %76 = call i32 @test_int_eq(ptr noundef @.str.29, i32 noundef 185, ptr noundef @.str.72, ptr noundef @.str.73, i32 noundef %72, i32 noundef %75)
  %77 = icmp ne i32 %76, 0
  br i1 %77, label %79, label %78

78:                                               ; preds = %58, %51
  br label %80

79:                                               ; preds = %58
  store i32 1, ptr %3, align 4, !tbaa !9
  br label %80

80:                                               ; preds = %79, %78, %50, %41, %34
  %81 = load ptr, ptr %7, align 8, !tbaa !31
  call void @EVP_SIGNATURE_free(ptr noundef %81)
  %82 = load ptr, ptr %6, align 8, !tbaa !15
  call void @EVP_PKEY_free(ptr noundef %82)
  %83 = load ptr, ptr %5, align 8, !tbaa !29
  call void @EVP_PKEY_CTX_free(ptr noundef %83)
  %84 = load i32, ptr %3, align 4, !tbaa !9
  call void @llvm.lifetime.end.p0(i64 4, ptr %10) #4
  call void @llvm.lifetime.end.p0(i64 8, ptr %9) #4
  call void @llvm.lifetime.end.p0(i64 80, ptr %8) #4
  call void @llvm.lifetime.end.p0(i64 8, ptr %7) #4
  call void @llvm.lifetime.end.p0(i64 8, ptr %6) #4
  call void @llvm.lifetime.end.p0(i64 8, ptr %5) #4
  call void @llvm.lifetime.end.p0(i64 8, ptr %4) #4
  call void @llvm.lifetime.end.p0(i64 4, ptr %3) #4
  ret i32 %84
}