; Function Attrs: nounwind uwtable
define internal range(i32 0, 2) i32 @ml_dsa_sigver_test(i32 %0) #1 {
  %2 = alloca ptr, align 8
  %3 = alloca [2 x %struct.ossl_param_st], align 16
  %4 = alloca i32, align 4
  %5 = alloca %struct.ossl_param_st, align 8
  call void @llvm.lifetime.start.p0(i64 8, ptr nonnull %2) #5
  store ptr null, ptr %2, align 8, !tbaa !16
  call void @llvm.lifetime.start.p0(i64 80, ptr nonnull %3) #5
  call void @llvm.lifetime.start.p0(i64 4, ptr nonnull %4) #5
  store i32 0, ptr %4, align 4, !tbaa !18
  %6 = getelementptr inbounds nuw i8, ptr %3, i64 40
  call void @OSSL_PARAM_construct_int(ptr dead_on_unwind nonnull writable sret(%struct.ossl_param_st) align 8 %3, ptr noundef nonnull @.str.48, ptr noundef nonnull %4) #5
  call void @llvm.lifetime.start.p0(i64 40, ptr nonnull %5) #5
  call void @OSSL_PARAM_construct_end(ptr dead_on_unwind nonnull writable sret(%struct.ossl_param_st) align 8 %5) #5
  call void @llvm.memcpy.p0.p0.i64(ptr noundef nonnull align 8 dereferenceable(40) %6, ptr noundef nonnull align 8 dereferenceable(40) %5, i64 40, i1 false), !tbaa.struct !20
  call void @llvm.lifetime.end.p0(i64 40, ptr nonnull %5) #5
  %7 = call fastcc i32 @ml_dsa_create_keypair(ptr noundef %2, ptr noundef nonnull @.str.74, ptr noundef null, i64 noundef 0, ptr noundef nonnull @ML_DSA_44_sigver_pub, i64 noundef 1312, i32 noundef 1)
  %8 = call i32 @test_true(ptr noundef nonnull @.str.29, i32 noundef 176, ptr noundef nonnull @.str.69, i32 noundef %7) #5
  %.not = icmp eq i32 %8, 0
  br i1 %.not, label %24, label %9

9:                                                ; preds = %1
  %10 = load ptr, ptr @lib_ctx, align 8, !tbaa !27
  %11 = load ptr, ptr %2, align 8, !tbaa !16
  %12 = call ptr @EVP_PKEY_CTX_new_from_pkey(ptr noundef %10, ptr noundef %11, ptr noundef null) #5
  %13 = call i32 @test_ptr(ptr noundef nonnull @.str.29, i32 noundef 179, ptr noundef nonnull @.str.70, ptr noundef %12) #5
  %.not19 = icmp eq i32 %13, 0
  br i1 %.not19, label %24, label %14

14:                                               ; preds = %9
  %15 = load ptr, ptr @lib_ctx, align 8, !tbaa !27
  %16 = call ptr @EVP_SIGNATURE_fetch(ptr noundef %15, ptr noundef nonnull @.str.74, ptr noundef null) #5
  %17 = call i32 @test_ptr(ptr noundef nonnull @.str.29, i32 noundef 181, ptr noundef nonnull @.str.52, ptr noundef %16) #5
  %.not20 = icmp eq i32 %17, 0
  br i1 %.not20, label %24, label %18

18:                                               ; preds = %14
  %19 = call i32 @EVP_PKEY_verify_message_init(ptr noundef %12, ptr noundef %16, ptr noundef nonnull %3) #5
  %20 = call i32 @test_int_eq(ptr noundef nonnull @.str.29, i32 noundef 183, ptr noundef nonnull @.str.71, ptr noundef nonnull @.str.44, i32 noundef %19, i32 noundef 1) #5
  %.not21 = icmp eq i32 %20, 0
  br i1 %.not21, label %24, label %21

21:                                               ; preds = %18
  %22 = call i32 @EVP_PKEY_verify(ptr noundef %12, ptr noundef nonnull @ML_DSA_44_sigver_11_sig, i64 noundef 2420, ptr noundef nonnull @ML_DSA_44_sigver_11_msg, i64 noundef 128) #5
  %23 = call i32 @test_int_eq(ptr noundef nonnull @.str.29, i32 noundef 185, ptr noundef nonnull @.str.72, ptr noundef nonnull @.str.73, i32 noundef %22, i32 noundef 1) #5
  %.not22 = icmp ne i32 %23, 0
  %spec.select = zext i1 %.not22 to i32
  br label %24

24:                                               ; preds = %21, %18, %14, %9, %1
  %.018 = phi ptr [ %12, %18 ], [ %12, %14 ], [ %12, %9 ], [ null, %1 ], [ %12, %21 ]
  %.017 = phi ptr [ %16, %18 ], [ %16, %14 ], [ null, %9 ], [ null, %1 ], [ %16, %21 ]
  %.0 = phi i32 [ 0, %18 ], [ 0, %14 ], [ 0, %9 ], [ 0, %1 ], [ %spec.select, %21 ]
  call void @EVP_SIGNATURE_free(ptr noundef %.017) #5
  %25 = load ptr, ptr %2, align 8, !tbaa !16
  call void @EVP_PKEY_free(ptr noundef %25) #5
  call void @EVP_PKEY_CTX_free(ptr noundef %.018) #5
  call void @llvm.lifetime.end.p0(i64 4, ptr nonnull %4) #5
  call void @llvm.lifetime.end.p0(i64 80, ptr nonnull %3) #5
  call void @llvm.lifetime.end.p0(i64 8, ptr nonnull %2) #5
  ret i32 %.0
}